; Function Attrs: mustprogress uwtable
define hidden void @_ZNK2dd3fdd13rational2bitsERK8rational(ptr noalias sret(%class.svector.8) align 8 %agg.result, ptr nocapture noundef nonnull readonly align 8 dereferenceable(40) %this, ptr noundef nonnull align 8 dereferenceable(32) %r) local_unnamed_addr #3 align 2 personality ptr @__gxx_personality_v0 {
entry:
  store ptr null, ptr %agg.result, align 8
  br label %for.cond

for.cond:                                         ; preds = %for.inc, %entry
  %i.0 = phi i32 [ 0, %entry ], [ %inc, %for.inc ]
  %0 = load ptr, ptr %this, align 8
  %cmp.i.i = icmp eq ptr %0, null
  br i1 %cmp.i.i, label %invoke.cont, label %if.end.i.i

if.end.i.i:                                       ; preds = %for.cond
  %arrayidx.i.i = getelementptr inbounds i8, ptr %0, i64 -4
  %1 = load i32, ptr %arrayidx.i.i, align 4
  br label %invoke.cont

invoke.cont:                                      ; preds = %if.end.i.i, %for.cond
  %retval.0.i.i = phi i32 [ %1, %if.end.i.i ], [ 0, %for.cond ]
  %cmp = icmp ult i32 %i.0, %retval.0.i.i
  br i1 %cmp, label %for.body, label %nrvo.skipdtor

for.body:                                         ; preds = %invoke.cont
  %2 = load ptr, ptr @_ZN8rational13g_mpq_managerE, align 8
  %call.i.i3 = invoke noundef zeroext i1 @_ZN11mpz_managerILb1EE7get_bitERK3mpzj(ptr noundef nonnull align 8 dereferenceable(600) %2, ptr noundef nonnull align 8 dereferenceable(16) %r, i32 noundef %i.0)
          to label %invoke.cont2 unwind label %lpad

invoke.cont2:                                     ; preds = %for.body
  %frombool = zext i1 %call.i.i3 to i8
  %3 = load ptr, ptr %agg.result, align 8
  %cmp.i = icmp eq ptr %3, null
  br i1 %cmp.i, label %if.then.i, label %lor.lhs.false.i

lor.lhs.false.i:                                  ; preds = %invoke.cont2
  %arrayidx.i = getelementptr inbounds i8, ptr %3, i64 -4
  %4 = load i32, ptr %arrayidx.i, align 4
  %arrayidx4.i = getelementptr inbounds i8, ptr %3, i64 -8
  %5 = load i32, ptr %arrayidx4.i, align 4
  %cmp5.i = icmp eq i32 %4, %5
  br i1 %cmp5.i, label %if.then.i, label %for.inc

if.then.i:                                        ; preds = %lor.lhs.false.i, %invoke.cont2
  invoke void @_ZN6vectorIbLb0EjE13expand_vectorEv(ptr noundef nonnull align 8 dereferenceable(8) %agg.result)
          to label %.noexc unwind label %lpad

.noexc:                                           ; preds = %if.then.i
  %.pre.i = load ptr, ptr %agg.result, align 8
  %arrayidx8.phi.trans.insert.i = getelementptr inbounds i8, ptr %.pre.i, i64 -4
  %.pre1.i = load i32, ptr %arrayidx8.phi.trans.insert.i, align 4
  br label %for.inc

for.inc:                                          ; preds = %.noexc, %lor.lhs.false.i
  %6 = phi i32 [ %.pre1.i, %.noexc ], [ %4, %lor.lhs.false.i ]
  %7 = phi ptr [ %.pre.i, %.noexc ], [ %3, %lor.lhs.false.i ]
  %idx.ext.i = zext i32 %6 to i64
  %add.ptr.i = getelementptr inbounds i8, ptr %7, i64 %idx.ext.i
  store i8 %frombool, ptr %add.ptr.i, align 1
  %8 = load ptr, ptr %agg.result, align 8
  %arrayidx10.i = getelementptr inbounds i8, ptr %8, i64 -4
  %9 = load i32, ptr %arrayidx10.i, align 4
  %inc.i = add i32 %9, 1
  store i32 %inc.i, ptr %arrayidx10.i, align 4
  %inc = add nuw i32 %i.0, 1
  br label %for.cond, !llvm.loop !85

lpad:                                             ; preds = %if.then.i, %for.body
  %10 = landingpad { ptr, i32 }
          cleanup
  tail call void @_ZN7svectorIbjED2Ev(ptr noundef nonnull align 8 dereferenceable(8) %agg.result) #14
  resume { ptr, i32 } %10

nrvo.skipdtor:                                    ; preds = %invoke.cont
  ret void
}